target datalayout = "e-m:e-p270:32:32-p271:32:32-p272:64:64-i64:64-i128:128-f80:128-n8:16:32:64-S128"
target triple = "x86_64-pc-linux-gnu"

%struct.MP = type { i64, [100 x ptr], %union.anon }
%union.anon = type { %struct.MPMAP }
%struct.MPMAP = type { ptr, i64, i64 }

@.str = private unnamed_addr constant [57 x i8] c"Map created @%p->%p - size %lu out of %lu - voidptr=%lu\0A\00", align 1

; Function Attrs: nounwind uwtable
define internal void @spam(ptr noundef %0, ...) #0 {
  %2 = alloca ptr, align 8
  store ptr %0, ptr %2, align 8
  ret void
}

; Function Attrs: nounwind uwtable
define internal i64 @align_to_pagesize(ptr noundef %0, i64 noundef %1) #0 {
  %3 = alloca ptr, align 8
  %4 = alloca i64, align 8
  store ptr %0, ptr %3, align 8
  store i64 %1, ptr %4, align 8
  %5 = load i64, ptr %4, align 8
  %6 = load ptr, ptr %3, align 8
  %7 = getelementptr inbounds %struct.MP, ptr %6, i32 0, i32 0
  %8 = load i64, ptr %7, align 8
  %9 = udiv i64 %5, %8
  %10 = load i64, ptr %4, align 8
  %11 = load ptr, ptr %3, align 8
  %12 = getelementptr inbounds %struct.MP, ptr %11, i32 0, i32 0
  %13 = load i64, ptr %12, align 8
  %14 = urem i64 %10, %13
  %15 = icmp ne i64 %14, 0
  %16 = zext i1 %15 to i32
  %17 = sext i32 %16 to i64
  %18 = add i64 %9, %17
  %19 = load ptr, ptr %3, align 8
  %20 = getelementptr inbounds %struct.MP, ptr %19, i32 0, i32 0
  %21 = load i64, ptr %20, align 8
  %22 = mul i64 %18, %21
  ret i64 %22
}

; Function Attrs: nounwind uwtable
define internal i32 @cli_getpagesize() #0 {
  %1 = call i64 @sysconf(i32 noundef 30) #6
  %2 = trunc i64 %1 to i32
  ret i32 %2
}

; Function Attrs: nounwind uwtable
define ptr @mpool_create() #0 {
  %1 = alloca ptr, align 8
  %2 = alloca %struct.MP, align 8
  %3 = alloca ptr, align 8
  %4 = alloca i64, align 8
  call void @llvm.memset.p0.i64(ptr align 8 %2, i8 0, i64 832, i1 false)
  %5 = call i32 @cli_getpagesize()
  %6 = sext i32 %5 to i64
  %7 = getelementptr inbounds %struct.MP, ptr %2, i32 0, i32 0
  store i64 %6, ptr %7, align 8
  %8 = call i64 @align_to_pagesize(ptr noundef %2, i64 noundef 262144)
  store i64 %8, ptr %4, align 8
  %9 = getelementptr inbounds %struct.MP, ptr %2, i32 0, i32 2
  %10 = getelementptr inbounds %struct.MPMAP, ptr %9, i32 0, i32 2
  store i64 24, ptr %10, align 8
  %11 = load i64, ptr %4, align 8
  %12 = sub i64 %11, 832
  %13 = getelementptr inbounds %struct.MP, ptr %2, i32 0, i32 2
  %14 = getelementptr inbounds %struct.MPMAP, ptr %13, i32 0, i32 1
  store i64 %12, ptr %14, align 8
  %15 = load i64, ptr %4, align 8
  %16 = call ptr @mmap(ptr noundef null, i64 noundef %15, i32 noundef 3, i32 noundef 34, i32 noundef -1, i64 noundef 0) #6
  store ptr %16, ptr %3, align 8
  %17 = icmp eq ptr %16, inttoptr (i64 -1 to ptr)
  br i1 %17, label %18, label %19

18:                                               ; preds = %0
  store ptr null, ptr %1, align 8
  br label %34

19:                                               ; preds = %0
  %20 = load ptr, ptr %3, align 8
  call void @llvm.memcpy.p0.p0.i64(ptr align 8 %20, ptr align 8 %2, i64 832, i1 false)
  %21 = load ptr, ptr %3, align 8
  %22 = load ptr, ptr %3, align 8
  %23 = getelementptr inbounds %struct.MP, ptr %2, i32 0, i32 2
  %24 = getelementptr inbounds %struct.MPMAP, ptr %23, i32 0, i32 1
  %25 = load i64, ptr %24, align 8
  %26 = getelementptr inbounds i8, ptr %22, i64 %25
  %27 = getelementptr inbounds %struct.MP, ptr %2, i32 0, i32 2
  %28 = getelementptr inbounds %struct.MPMAP, ptr %27, i32 0, i32 2
  %29 = load i64, ptr %28, align 8
  %30 = getelementptr inbounds %struct.MP, ptr %2, i32 0, i32 2
  %31 = getelementptr inbounds %struct.MPMAP, ptr %30, i32 0, i32 1
  %32 = load i64, ptr %31, align 8
  call void (ptr, ...) @spam(ptr noundef @.str, ptr noundef %21, ptr noundef %26, i64 noundef %29, i64 noundef %32, i64 noundef 8)
  %33 = load ptr, ptr %3, align 8
  store ptr %33, ptr %1, align 8
  br label %34

34:                                               ; preds = %19, %18
  %35 = load ptr, ptr %1, align 8
  ret ptr %35
}