; Function Attrs: nounwind uwtable
define ptr @mpool_create() local_unnamed_addr #0 {
  %1 = tail call i64 @sysconf(i32 noundef 30) #10
  %sext = shl i64 %1, 32
  %2 = ashr exact i64 %sext, 32
  %3 = udiv i64 262144, %2
  %4 = urem i64 262144, %2
  %5 = icmp ne i64 %4, 0
  %6 = zext i1 %5 to i64
  %7 = add nuw nsw i64 %3, %6
  %8 = mul nsw i64 %7, %2
  %9 = tail call ptr @mmap(ptr noundef null, i64 noundef %8, i32 noundef 3, i32 noundef 34, i32 noundef -1, i64 noundef 0) #10
  %10 = icmp eq ptr %9, inttoptr (i64 -1 to ptr)
  br i1 %10, label %13, label %11

11:                                               ; preds = %0
  %12 = add nsw i64 %8, -832
  store i64 %2, ptr %9, align 8
  %.sroa.4.0..sroa_idx = getelementptr inbounds i8, ptr %9, i64 8
  tail call void @llvm.memset.p0.i64(ptr noundef nonnull align 8 dereferenceable(808) %.sroa.4.0..sroa_idx, i8 0, i64 808, i1 false)
  %.sroa.47.0..sroa_idx = getelementptr inbounds i8, ptr %9, i64 816
  store i64 %12, ptr %.sroa.47.0..sroa_idx, align 8
  %.sroa.6.0..sroa_idx = getelementptr inbounds i8, ptr %9, i64 824
  store i64 24, ptr %.sroa.6.0..sroa_idx, align 8
  br label %13

13:                                               ; preds = %0, %11
  %.0 = phi ptr [ %9, %11 ], [ null, %0 ]
  ret ptr %.0
}